target datalayout = "e-m:e-p270:32:32-p271:32:32-p272:64:64-i64:64-i128:128-f80:128-n8:16:32:64-S128"
target triple = "x86_64-pc-linux-gnu"

%class.GLCheckerTexture = type { i32 }

@_ZL5g_tex = internal global %class.GLCheckerTexture zeroinitializer, align 4

; Function Attrs: mustprogress uwtable
define dso_local void @_ZN11DebugDrawGL7textureEb(ptr noundef nonnull align 8 dereferenceable(8) %0, i1 noundef zeroext %1) unnamed_addr #0 align 2 {
  %3 = alloca ptr, align 8
  %4 = alloca i8, align 1
  store ptr %0, ptr %3, align 8
  %5 = zext i1 %1 to i8
  store i8 %5, ptr %4, align 1
  %6 = load i8, ptr %4, align 1
  %7 = trunc i8 %6 to i1
  br i1 %7, label %8, label %9

8:                                                ; preds = %2
  call void @glEnable(i32 noundef 3553)
  call void @_ZN16GLCheckerTexture4bindEv(ptr noundef nonnull align 4 dereferenceable(4) @_ZL5g_tex)
  br label %10

9:                                                ; preds = %2
  call void @glDisable(i32 noundef 3553)
  br label %10

10:                                               ; preds = %9, %8
  ret void
}