; Function Attrs: mustprogress uwtable
define dso_local void @_ZN11DebugDrawGL7textureEb(ptr nocapture nonnull readnone align 8 %0, i1 noundef zeroext %1) unnamed_addr #4 align 2 {
  br i1 %1, label %3, label %4

3:                                                ; preds = %2
  tail call void @glEnable(i32 noundef 3553)
  tail call void @_ZN16GLCheckerTexture4bindEv(ptr noundef nonnull align 4 dereferenceable(4) @_ZL5g_tex)
  br label %5

4:                                                ; preds = %2
  tail call void @glDisable(i32 noundef 3553)
  br label %5

5:                                                ; preds = %4, %3
  ret void
}